target datalayout = "e-m:e-p270:32:32-p271:32:32-p272:64:64-i64:64-i128:128-f80:128-n8:16:32:64-S128"
target triple = "x86_64-pc-linux-gnu"

%"struct.clang::RISCV::LMULType" = type { i32 }
%"class.std::__cxx11::basic_string" = type { %"struct.std::__cxx11::basic_string<char>::_Alloc_hider", i64, %union.anon }
%"struct.std::__cxx11::basic_string<char>::_Alloc_hider" = type { ptr }
%union.anon = type { i64, [8 x i8] }
%"class.std::optional" = type { %"struct.std::_Optional_base" }
%"struct.std::_Optional_base" = type { %"struct.std::_Optional_payload" }
%"struct.std::_Optional_payload" = type { %"struct.std::_Optional_payload_base.base", [3 x i8] }
%"struct.std::_Optional_payload_base.base" = type <{ %"union.std::_Optional_payload_base<unsigned int>::_Storage", i8 }>
%"union.std::_Optional_payload_base<unsigned int>::_Storage" = type { i32 }
%"class.clang::RISCV::RVVType" = type { i8, i8, %"struct.clang::RISCV::LMULType", i8, i8, i8, i32, %"class.std::optional", i8, i8, i32, %"class.std::__cxx11::basic_string", %"class.std::__cxx11::basic_string", %"class.std::__cxx11::basic_string", %"class.std::__cxx11::basic_string" }
%"struct.std::_Optional_payload_base" = type <{ %"union.std::_Optional_payload_base<unsigned int>::_Storage", i8, [3 x i8] }>

@_ZN5clang5RISCV8LMULTypeC1Ei = unnamed_addr alias void (ptr, i32), ptr @_ZN5clang5RISCV8LMULTypeC2Ei

; Function Attrs: mustprogress nounwind uwtable
define linkonce_odr hidden void @_ZNSt22_Optional_payload_baseIjE8_StorageIjLb1EEC2IJiEEESt10in_place_tDpOT_(ptr noundef nonnull align 4 dereferenceable(4) %0, ptr noundef nonnull align 4 dereferenceable(4) %1) unnamed_addr #0 comdat align 2 {
  %3 = alloca ptr, align 8
  %4 = alloca ptr, align 8
  store ptr %0, ptr %3, align 8
  store ptr %1, ptr %4, align 8
  %5 = load ptr, ptr %3, align 8
  %6 = load ptr, ptr %4, align 8
  %7 = load i32, ptr %6, align 4
  store i32 %7, ptr %5, align 4
  ret void
}

; Function Attrs: mustprogress nounwind uwtable
define linkonce_odr hidden void @_ZNSt22_Optional_payload_baseIjE8_StorageIjLb1EEC2Ev(ptr noundef nonnull align 4 dereferenceable(4) %0) unnamed_addr #0 comdat align 2 {
  %2 = alloca ptr, align 8
  store ptr %0, ptr %2, align 8
  ret void
}

; Function Attrs: mustprogress nounwind uwtable
define linkonce_odr hidden void @_ZNSt22_Optional_payload_baseIjEC2IJiEEESt10in_place_tDpOT_(ptr noundef nonnull align 4 dereferenceable(5) %0, ptr noundef nonnull align 4 dereferenceable(4) %1) unnamed_addr #0 comdat align 2 {
  %3 = alloca ptr, align 8
  %4 = alloca ptr, align 8
  store ptr %0, ptr %3, align 8
  store ptr %1, ptr %4, align 8
  %5 = load ptr, ptr %3, align 8
  %6 = getelementptr inbounds nuw %"struct.std::_Optional_payload_base", ptr %5, i32 0, i32 0
  %7 = load ptr, ptr %4, align 8
  call void @_ZNSt22_Optional_payload_baseIjE8_StorageIjLb1EEC2IJiEEESt10in_place_tDpOT_(ptr noundef nonnull align 4 dereferenceable(4) %6, ptr noundef nonnull align 4 dereferenceable(4) %7)
  %8 = getelementptr inbounds nuw %"struct.std::_Optional_payload_base", ptr %5, i32 0, i32 1
  store i8 1, ptr %8, align 4
  ret void
}

; Function Attrs: mustprogress nounwind uwtable
define linkonce_odr hidden void @_ZNSt22_Optional_payload_baseIjEC2Ev(ptr noundef nonnull align 4 dereferenceable(5) %0) unnamed_addr #0 comdat align 2 {
  %2 = alloca ptr, align 8
  store ptr %0, ptr %2, align 8
  %3 = load ptr, ptr %2, align 8
  %4 = getelementptr inbounds nuw %"struct.std::_Optional_payload_base", ptr %3, i32 0, i32 0
  call void @_ZNSt22_Optional_payload_baseIjE8_StorageIjLb1EEC2Ev(ptr noundef nonnull align 4 dereferenceable(4) %4) #11
  %5 = getelementptr inbounds nuw %"struct.std::_Optional_payload_base", ptr %3, i32 0, i32 1
  store i8 0, ptr %5, align 4
  ret void
}

; Function Attrs: mustprogress nounwind uwtable
define linkonce_odr hidden void @_ZNSt17_Optional_payloadIjLb1ELb1ELb1EECI2St22_Optional_payload_baseIjEIJiEEESt10in_place_tDpOT_(ptr noundef nonnull align 4 dereferenceable(5) %0, ptr noundef nonnull align 4 dereferenceable(4) %1) unnamed_addr #0 comdat align 2 {
  %3 = alloca ptr, align 8
  %4 = alloca ptr, align 8
  store ptr %0, ptr %3, align 8
  store ptr %1, ptr %4, align 8
  %5 = load ptr, ptr %3, align 8
  %6 = load ptr, ptr %4, align 8
  call void @_ZNSt22_Optional_payload_baseIjEC2IJiEEESt10in_place_tDpOT_(ptr noundef nonnull align 4 dereferenceable(5) %5, ptr noundef nonnull align 4 dereferenceable(4) %6)
  ret void
}

; Function Attrs: mustprogress nounwind uwtable
define linkonce_odr hidden void @_ZNSt17_Optional_payloadIjLb1ELb1ELb1EEC2Ev(ptr noundef nonnull align 4 dereferenceable(5) %0) unnamed_addr #0 comdat align 2 {
  %2 = alloca ptr, align 8
  store ptr %0, ptr %2, align 8
  %3 = load ptr, ptr %2, align 8
  call void @_ZNSt22_Optional_payload_baseIjEC2Ev(ptr noundef nonnull align 4 dereferenceable(5) %3) #11
  ret void
}

; Function Attrs: mustprogress nounwind uwtable
define linkonce_odr hidden void @_ZNSt14_Optional_baseIjLb1ELb1EEC2IJiETnNSt9enable_ifIX18is_constructible_vIjDpT_EEbE4typeELb0EEESt10in_place_tDpOS3_(ptr noundef nonnull align 4 dereferenceable(8) %0, ptr noundef nonnull align 4 dereferenceable(4) %1) unnamed_addr #0 comdat align 2 {
  %3 = alloca ptr, align 8
  %4 = alloca ptr, align 8
  store ptr %0, ptr %3, align 8
  store ptr %1, ptr %4, align 8
  %5 = load ptr, ptr %3, align 8
  %6 = getelementptr inbounds nuw %"struct.std::_Optional_base", ptr %5, i32 0, i32 0
  %7 = load ptr, ptr %4, align 8
  call void @_ZNSt17_Optional_payloadIjLb1ELb1ELb1EECI2St22_Optional_payload_baseIjEIJiEEESt10in_place_tDpOT_(ptr noundef nonnull align 4 dereferenceable(5) %6, ptr noundef nonnull align 4 dereferenceable(4) %7)
  ret void
}

; Function Attrs: mustprogress nounwind uwtable
define linkonce_odr hidden void @_ZNSt14_Optional_baseIjLb1ELb1EEC2Ev(ptr noundef nonnull align 4 dereferenceable(8) %0) unnamed_addr #0 comdat align 2 {
  %2 = alloca ptr, align 8
  store ptr %0, ptr %2, align 8
  %3 = load ptr, ptr %2, align 8
  %4 = getelementptr inbounds nuw %"struct.std::_Optional_base", ptr %3, i32 0, i32 0
  call void @_ZNSt17_Optional_payloadIjLb1ELb1ELb1EEC2Ev(ptr noundef nonnull align 4 dereferenceable(5) %4) #11
  ret void
}

; Function Attrs: mustprogress nounwind uwtable
define linkonce_odr hidden void @_ZNSt8optionalIjEC2IiTnNSt9enable_ifIX7__and_vISt6__not_ISt7is_sameIS0_NSt9remove_cvINSt16remove_referenceIT_E4typeEE4typeEEES3_IS4_ISt10in_place_tSB_EESt16is_constructibleIjJS7_EESt14is_convertibleIS7_jEEEbE4typeELb1EEEOS7_(ptr noundef nonnull align 4 dereferenceable(8) %0, ptr noundef nonnull align 4 dereferenceable(4) %1) unnamed_addr #0 comdat align 2 {
  %3 = alloca ptr, align 8
  %4 = alloca ptr, align 8
  store ptr %0, ptr %3, align 8
  store ptr %1, ptr %4, align 8
  %5 = load ptr, ptr %3, align 8
  %6 = load ptr, ptr %4, align 8
  call void @_ZNSt14_Optional_baseIjLb1ELb1EEC2IJiETnNSt9enable_ifIX18is_constructible_vIjDpT_EEbE4typeELb0EEESt10in_place_tDpOS3_(ptr noundef nonnull align 4 dereferenceable(8) %5, ptr noundef nonnull align 4 dereferenceable(4) %6)
  ret void
}

; Function Attrs: mustprogress nounwind uwtable
define linkonce_odr hidden void @_ZNSt8optionalIjEC2ESt9nullopt_t(ptr noundef nonnull align 4 dereferenceable(8) %0) unnamed_addr #0 comdat align 2 {
  %2 = alloca ptr, align 8
  store ptr %0, ptr %2, align 8
  %3 = load ptr, ptr %2, align 8
  call void @_ZNSt14_Optional_baseIjLb1ELb1EEC2Ev(ptr noundef nonnull align 4 dereferenceable(8) %3) #11
  ret void
}

; Function Attrs: mustprogress nounwind uwtable
define dso_local i64 @_ZNK5clang5RISCV8LMULType8getScaleEj(ptr noundef nonnull align 4 dereferenceable(4) %0, i32 noundef %1) #0 align 2 {
  %3 = alloca %"class.std::optional", align 4
  %4 = alloca ptr, align 8
  %5 = alloca i32, align 4
  %6 = alloca i32, align 4
  %7 = alloca i32, align 4
  store ptr %0, ptr %4, align 8
  store i32 %1, ptr %5, align 4
  %8 = load ptr, ptr %4, align 8
  store i32 0, ptr %6, align 4
  %9 = load i32, ptr %5, align 4
  switch i32 %9, label %10 [
    i32 8, label %11
    i32 16, label %15
    i32 32, label %19
    i32 64, label %23
  ]

10:                                               ; preds = %2
  br label %26

11:                                               ; preds = %2
  %12 = getelementptr inbounds nuw %"struct.clang::RISCV::LMULType", ptr %8, i32 0, i32 0
  %13 = load i32, ptr %12, align 4
  %14 = add nsw i32 %13, 3
  store i32 %14, ptr %6, align 4
  br label %26

15:                                               ; preds = %2
  %16 = getelementptr inbounds nuw %"struct.clang::RISCV::LMULType", ptr %8, i32 0, i32 0
  %17 = load i32, ptr %16, align 4
  %18 = add nsw i32 %17, 2
  store i32 %18, ptr %6, align 4
  br label %26

19:                                               ; preds = %2
  %20 = getelementptr inbounds nuw %"struct.clang::RISCV::LMULType", ptr %8, i32 0, i32 0
  %21 = load i32, ptr %20, align 4
  %22 = add nsw i32 %21, 1
  store i32 %22, ptr %6, align 4
  br label %26

23:                                               ; preds = %2
  %24 = getelementptr inbounds nuw %"struct.clang::RISCV::LMULType", ptr %8, i32 0, i32 0
  %25 = load i32, ptr %24, align 4
  store i32 %25, ptr %6, align 4
  br label %26

26:                                               ; preds = %23, %19, %15, %11, %10
  %27 = load i32, ptr %6, align 4
  %28 = icmp slt i32 %27, 0
  br i1 %28, label %29, label %30

29:                                               ; preds = %26
  call void @_ZNSt8optionalIjEC2ESt9nullopt_t(ptr noundef nonnull align 4 dereferenceable(8) %3) #11
  br label %33

30:                                               ; preds = %26
  %31 = load i32, ptr %6, align 4
  %32 = shl i32 1, %31
  store i32 %32, ptr %7, align 4
  call void @_ZNSt8optionalIjEC2IiTnNSt9enable_ifIX7__and_vISt6__not_ISt7is_sameIS0_NSt9remove_cvINSt16remove_referenceIT_E4typeEE4typeEEES3_IS4_ISt10in_place_tSB_EESt16is_constructibleIjJS7_EESt14is_convertibleIS7_jEEEbE4typeELb1EEEOS7_(ptr noundef nonnull align 4 dereferenceable(8) %3, ptr noundef nonnull align 4 dereferenceable(4) %7) #11
  br label %33

33:                                               ; preds = %30, %29
  %34 = getelementptr inbounds nuw %"class.std::optional", ptr %3, i32 0, i32 0
  %35 = getelementptr inbounds nuw %"struct.std::_Optional_base", ptr %34, i32 0, i32 0
  %36 = load i64, ptr %35, align 4
  ret i64 %36
}

; Function Attrs: mustprogress nounwind uwtable
define dso_local void @_ZN5clang5RISCV7RVVType18applyFixedLog2LMULEiNS1_13FixedLMULTypeE(ptr noundef nonnull align 8 dereferenceable(160) %0, i32 noundef %1, i32 noundef %2) #0 align 2 {
  %4 = alloca ptr, align 8
  %5 = alloca i32, align 4
  %6 = alloca i32, align 4
  %7 = alloca %"struct.clang::RISCV::LMULType", align 4
  %8 = alloca %"class.std::optional", align 4
  store ptr %0, ptr %4, align 8
  store i32 %1, ptr %5, align 4
  store i32 %2, ptr %6, align 4
  %9 = load ptr, ptr %4, align 8
  %10 = load i32, ptr %6, align 4
  switch i32 %10, label %38 [
    i32 0, label %11
    i32 1, label %20
    i32 2, label %29
  ]

11:                                               ; preds = %3
  %12 = load i32, ptr %5, align 4
  %13 = getelementptr inbounds nuw %"class.clang::RISCV::RVVType", ptr %9, i32 0, i32 2
  %14 = getelementptr inbounds nuw %"struct.clang::RISCV::LMULType", ptr %13, i32 0, i32 0
  %15 = load i32, ptr %14, align 4
  %16 = icmp sle i32 %12, %15
  br i1 %16, label %17, label %19

17:                                               ; preds = %11
  %18 = getelementptr inbounds nuw %"class.clang::RISCV::RVVType", ptr %9, i32 0, i32 1
  store i8 10, ptr %18, align 1
  br label %48

19:                                               ; preds = %11
  br label %38

20:                                               ; preds = %3
  %21 = load i32, ptr %5, align 4
  %22 = getelementptr inbounds nuw %"class.clang::RISCV::RVVType", ptr %9, i32 0, i32 2
  %23 = getelementptr inbounds nuw %"struct.clang::RISCV::LMULType", ptr %22, i32 0, i32 0
  %24 = load i32, ptr %23, align 4
  %25 = icmp sge i32 %21, %24
  br i1 %25, label %26, label %28

26:                                               ; preds = %20
  %27 = getelementptr inbounds nuw %"class.clang::RISCV::RVVType", ptr %9, i32 0, i32 1
  store i8 10, ptr %27, align 1
  br label %48

28:                                               ; preds = %20
  br label %38

29:                                               ; preds = %3
  %30 = load i32, ptr %5, align 4
  %31 = getelementptr inbounds nuw %"class.clang::RISCV::RVVType", ptr %9, i32 0, i32 2
  %32 = getelementptr inbounds nuw %"struct.clang::RISCV::LMULType", ptr %31, i32 0, i32 0
  %33 = load i32, ptr %32, align 4
  %34 = icmp sgt i32 %30, %33
  br i1 %34, label %35, label %37

35:                                               ; preds = %29
  %36 = getelementptr inbounds nuw %"class.clang::RISCV::RVVType", ptr %9, i32 0, i32 1
  store i8 10, ptr %36, align 1
  br label %48

37:                                               ; preds = %29
  br label %38

38:                                               ; preds = %37, %28, %19, %3
  %39 = load i32, ptr %5, align 4
  call void @_ZN5clang5RISCV8LMULTypeC1Ei(ptr noundef nonnull align 4 dereferenceable(4) %7, i32 noundef %39)
  %40 = getelementptr inbounds nuw %"class.clang::RISCV::RVVType", ptr %9, i32 0, i32 2
  call void @llvm.memcpy.p0.p0.i64(ptr align 4 %40, ptr align 4 %7, i64 4, i1 false)
  %41 = getelementptr inbounds nuw %"class.clang::RISCV::RVVType", ptr %9, i32 0, i32 2
  %42 = getelementptr inbounds nuw %"class.clang::RISCV::RVVType", ptr %9, i32 0, i32 6
  %43 = load i32, ptr %42, align 4
  %44 = call i64 @_ZNK5clang5RISCV8LMULType8getScaleEj(ptr noundef nonnull align 4 dereferenceable(4) %41, i32 noundef %43)
  %45 = getelementptr inbounds nuw %"class.std::optional", ptr %8, i32 0, i32 0
  %46 = getelementptr inbounds nuw %"struct.std::_Optional_base", ptr %45, i32 0, i32 0
  store i64 %44, ptr %46, align 4
  %47 = getelementptr inbounds nuw %"class.clang::RISCV::RVVType", ptr %9, i32 0, i32 7
  call void @llvm.memcpy.p0.p0.i64(ptr align 8 %47, ptr align 4 %8, i64 8, i1 false)
  br label %48

48:                                               ; preds = %38, %35, %26, %17
  ret void
}