; Function Attrs: mustprogress nounwind uwtable
define dso_local void @_ZN5clang5RISCV7RVVType18applyFixedLog2LMULEiNS1_13FixedLMULTypeE(ptr nocapture noundef nonnull align 8 dereferenceable(160) %0, i32 noundef %1, i32 noundef %2) local_unnamed_addr #1 align 2 {
  %4 = alloca %"struct.clang::RISCV::LMULType", align 4
  switch i32 %2, label %21 [
    i32 0, label %5
    i32 1, label %10
    i32 2, label %15
  ]

5:                                                ; preds = %3
  %6 = getelementptr inbounds nuw i8, ptr %0, i64 4
  %7 = load i32, ptr %6, align 4
  %.not5 = icmp sgt i32 %1, %7
  br i1 %.not5, label %21, label %8

8:                                                ; preds = %5
  %9 = getelementptr inbounds nuw i8, ptr %0, i64 1
  store i8 10, ptr %9, align 1
  br label %39

10:                                               ; preds = %3
  %11 = getelementptr inbounds nuw i8, ptr %0, i64 4
  %12 = load i32, ptr %11, align 4
  %.not = icmp slt i32 %1, %12
  br i1 %.not, label %21, label %13

13:                                               ; preds = %10
  %14 = getelementptr inbounds nuw i8, ptr %0, i64 1
  store i8 10, ptr %14, align 1
  br label %39

15:                                               ; preds = %3
  %16 = getelementptr inbounds nuw i8, ptr %0, i64 4
  %17 = load i32, ptr %16, align 4
  %18 = icmp sgt i32 %1, %17
  br i1 %18, label %19, label %21

19:                                               ; preds = %15
  %20 = getelementptr inbounds nuw i8, ptr %0, i64 1
  store i8 10, ptr %20, align 1
  br label %39

21:                                               ; preds = %15, %10, %5, %3
  call void @_ZN5clang5RISCV8LMULTypeC1Ei(ptr noundef nonnull align 4 dereferenceable(4) %4, i32 noundef %1) #20
  %22 = getelementptr inbounds nuw i8, ptr %0, i64 4
  %23 = load i32, ptr %4, align 4
  store i32 %23, ptr %22, align 4
  %24 = getelementptr inbounds nuw i8, ptr %0, i64 12
  %25 = load i32, ptr %24, align 4
  %26 = add i32 %25, -8
  %27 = call i32 @llvm.fshl.i32(i32 %26, i32 %26, i32 29)
  switch i32 %27, label %.thread.i [
    i32 0, label %28
    i32 1, label %30
    i32 3, label %32
    i32 7, label %34
  ]

28:                                               ; preds = %21
  %29 = add nsw i32 %23, 3
  br label %34

30:                                               ; preds = %21
  %31 = add nsw i32 %23, 2
  br label %34

32:                                               ; preds = %21
  %33 = add nsw i32 %23, 1
  br label %34

34:                                               ; preds = %21, %32, %30, %28
  %.0.i = phi i32 [ %33, %32 ], [ %31, %30 ], [ %29, %28 ], [ %23, %21 ]
  %35 = icmp slt i32 %.0.i, 0
  br i1 %35, label %_ZNK5clang5RISCV8LMULType8getScaleEj.exit, label %.thread.i

.thread.i:                                        ; preds = %34, %21
  %.04.i = phi i32 [ %.0.i, %34 ], [ 0, %21 ]
  %36 = shl nuw i32 1, %.04.i
  %37 = zext i32 %36 to i64
  br label %_ZNK5clang5RISCV8LMULType8getScaleEj.exit

_ZNK5clang5RISCV8LMULType8getScaleEj.exit:        ; preds = %34, %.thread.i
  %.sroa.0.0.i = phi i64 [ %37, %.thread.i ], [ 0, %34 ]
  %.sroa.2.0.i = phi i64 [ 4294967296, %.thread.i ], [ 0, %34 ]
  %.sroa.0.0.insert.insert.i = or disjoint i64 %.sroa.2.0.i, %.sroa.0.0.i
  %38 = getelementptr inbounds nuw i8, ptr %0, i64 16
  store i64 %.sroa.0.0.insert.insert.i, ptr %38, align 8
  br label %39

39:                                               ; preds = %_ZNK5clang5RISCV8LMULType8getScaleEj.exit, %19, %13, %8
  ret void
}